; Function Attrs: nounwind uwtable
define range(i32 0, 2) i32 @test_BN_gt_zero(ptr noundef %0, i32 noundef %1, ptr noundef %2, ptr noundef %3) local_unnamed_addr #0 {
  %.not = icmp eq ptr %3, null
  br i1 %.not, label %9, label %5

5:                                                ; preds = %4
  %6 = tail call i32 @BN_is_negative(ptr noundef nonnull %3) #8
  %.not8 = icmp eq i32 %6, 0
  br i1 %.not8, label %7, label %9

7:                                                ; preds = %5
  %8 = tail call i32 @BN_is_zero(ptr noundef nonnull %3) #8
  %.not9 = icmp eq i32 %8, 0
  br i1 %.not9, label %10, label %9

9:                                                ; preds = %7, %5, %4
  tail call void @test_fail_bignum_mono_message(ptr noundef null, ptr noundef %0, i32 noundef %1, ptr noundef nonnull @.str.46, ptr noundef %2, ptr noundef nonnull @.str.47, ptr noundef nonnull @.str.17, ptr noundef %3) #8
  br label %10

10:                                               ; preds = %7, %9
  %.0 = phi i32 [ 0, %9 ], [ 1, %7 ]
  ret i32 %.0
}